target datalayout = "e-m:e-p270:32:32-p271:32:32-p272:64:64-i64:64-i128:128-f80:128-n8:16:32:64-S128"
target triple = "x86_64-pc-linux-gnu"

%struct.repository = type { ptr, ptr, ptr, ptr, ptr, %struct.strmap, %struct.strmap, %struct.repo_path_cache, ptr, ptr, ptr, ptr, %struct.repo_settings, ptr, ptr, ptr, ptr, ptr, ptr, i32, i32, i32, ptr, ptr, i32, i32, i8 }
%struct.strmap = type { %struct.hashmap, ptr, i8 }
%struct.hashmap = type { ptr, ptr, ptr, i32, i32, i32, i32, i8 }
%struct.repo_path_cache = type { ptr, ptr, ptr, ptr, ptr, ptr, ptr }
%struct.repo_settings = type { i32, i32, i32, i32, i32, i32, i32, i32, i32, i32, i32, i32, ptr, i32, i32, i32, i32, i32, i32, i32, i64, i64, i64 }
%struct.parsed_object_pool = type { ptr, ptr, i32, i32, ptr, ptr, ptr, ptr, ptr, ptr, i32, i32, i32, ptr, ptr, i32, i32, ptr }

@the_repository = external global ptr, align 8

; Function Attrs: nounwind uwtable
define dso_local i32 @for_each_commit_graft(ptr noundef %0, ptr noundef %1) #0 {
  %3 = alloca ptr, align 8
  %4 = alloca ptr, align 8
  %5 = alloca i32, align 4
  %6 = alloca i32, align 4
  store ptr %0, ptr %3, align 8, !tbaa !48
  store ptr %1, ptr %4, align 8, !tbaa !48
  call void @llvm.lifetime.start.p0(i64 4, ptr %5) #11
  call void @llvm.lifetime.start.p0(i64 4, ptr %6) #11
  store i32 0, ptr %6, align 4, !tbaa !11
  store i32 0, ptr %5, align 4, !tbaa !11
  br label %7

7:                                                ; preds = %34, %2
  %8 = load i32, ptr %5, align 4, !tbaa !11
  %9 = load ptr, ptr @the_repository, align 8, !tbaa !4
  %10 = getelementptr inbounds nuw %struct.repository, ptr %9, i32 0, i32 3
  %11 = load ptr, ptr %10, align 8, !tbaa !20
  %12 = getelementptr inbounds nuw %struct.parsed_object_pool, ptr %11, i32 0, i32 11
  %13 = load i32, ptr %12, align 4, !tbaa !46
  %14 = icmp slt i32 %8, %13
  br i1 %14, label %15, label %19

15:                                               ; preds = %7
  %16 = load i32, ptr %6, align 4, !tbaa !11
  %17 = icmp ne i32 %16, 0
  %18 = xor i1 %17, true
  br label %19

19:                                               ; preds = %15, %7
  %20 = phi i1 [ false, %7 ], [ %18, %15 ]
  br i1 %20, label %21, label %37

21:                                               ; preds = %19
  %22 = load ptr, ptr %3, align 8, !tbaa !48
  %23 = load ptr, ptr @the_repository, align 8, !tbaa !4
  %24 = getelementptr inbounds nuw %struct.repository, ptr %23, i32 0, i32 3
  %25 = load ptr, ptr %24, align 8, !tbaa !20
  %26 = getelementptr inbounds nuw %struct.parsed_object_pool, ptr %25, i32 0, i32 9
  %27 = load ptr, ptr %26, align 8, !tbaa !39
  %28 = load i32, ptr %5, align 4, !tbaa !11
  %29 = sext i32 %28 to i64
  %30 = getelementptr inbounds ptr, ptr %27, i64 %29
  %31 = load ptr, ptr %30, align 8, !tbaa !50
  %32 = load ptr, ptr %4, align 8, !tbaa !48
  %33 = call i32 %22(ptr noundef %31, ptr noundef %32)
  store i32 %33, ptr %6, align 4, !tbaa !11
  br label %34

34:                                               ; preds = %21
  %35 = load i32, ptr %5, align 4, !tbaa !11
  %36 = add nsw i32 %35, 1
  store i32 %36, ptr %5, align 4, !tbaa !11
  br label %7, !llvm.loop !77

37:                                               ; preds = %19
  %38 = load i32, ptr %6, align 4, !tbaa !11
  call void @llvm.lifetime.end.p0(i64 4, ptr %6) #11
  call void @llvm.lifetime.end.p0(i64 4, ptr %5) #11
  ret i32 %38
}