; Function Attrs: nounwind uwtable
define dso_local i32 @for_each_commit_graft(ptr noundef readonly captures(none) %0, ptr noundef %1) local_unnamed_addr #0 {
  %3 = load ptr, ptr @the_repository, align 8, !tbaa !4
  %4 = getelementptr inbounds nuw i8, ptr %3, i64 24
  %5 = load ptr, ptr %4, align 8, !tbaa !12
  %6 = getelementptr inbounds nuw i8, ptr %5, i64 76
  %7 = load i32, ptr %6, align 4, !tbaa !39
  %8 = icmp sgt i32 %7, 0
  br i1 %8, label %.lr.ph, label %._crit_edge

.lr.ph:                                           ; preds = %2, %.lr.ph
  %indvars.iv = phi i64 [ %indvars.iv.next, %.lr.ph ], [ 0, %2 ]
  %9 = phi ptr [ %17, %.lr.ph ], [ %5, %2 ]
  %10 = getelementptr inbounds nuw i8, ptr %9, i64 64
  %11 = load ptr, ptr %10, align 8, !tbaa !32
  %12 = getelementptr inbounds nuw ptr, ptr %11, i64 %indvars.iv
  %13 = load ptr, ptr %12, align 8, !tbaa !40
  %14 = tail call i32 %0(ptr noundef %13, ptr noundef %1) #24
  %indvars.iv.next = add nuw nsw i64 %indvars.iv, 1
  %15 = load ptr, ptr @the_repository, align 8, !tbaa !4
  %16 = getelementptr inbounds nuw i8, ptr %15, i64 24
  %17 = load ptr, ptr %16, align 8, !tbaa !12
  %18 = getelementptr inbounds nuw i8, ptr %17, i64 76
  %19 = load i32, ptr %18, align 4, !tbaa !39
  %20 = sext i32 %19 to i64
  %21 = icmp slt i64 %indvars.iv.next, %20
  %.not = icmp eq i32 %14, 0
  %22 = select i1 %21, i1 %.not, i1 false
  br i1 %22, label %.lr.ph, label %._crit_edge, !llvm.loop !66

._crit_edge:                                      ; preds = %.lr.ph, %2
  %.0.lcssa = phi i32 [ 0, %2 ], [ %14, %.lr.ph ]
  ret i32 %.0.lcssa
}